target datalayout = "e-m:e-p270:32:32-p271:32:32-p272:64:64-i64:64-i128:128-f80:128-n8:16:32:64-S128"
target triple = "x86_64-pc-linux-gnu"

%struct.pg_regex_t = type { i32, i64, i64, i32, ptr, i32, ptr, ptr }
%struct.guts = type { i32, i32, i64, i64, ptr, %struct.cnfa, i32, %struct.colormap, ptr, ptr, i32 }
%struct.cnfa = type { i32, i32, i32, i32, i32, [2 x i16], [2 x i16], ptr, ptr, ptr, i32, i32 }
%struct.colormap = type { i32, ptr, i64, i64, i16, ptr, ptr, [14 x i32], i32, ptr, ptr, i32, i32, i32, [10 x %struct.colordesc] }
%struct.colordesc = type { i32, i32, i16, ptr, i32, i32 }

; Function Attrs: nounwind uwtable
define dso_local i32 @pg_reg_getnumcolors(ptr noundef %0) #0 {
  %2 = alloca ptr, align 8
  %3 = alloca ptr, align 8
  store ptr %0, ptr %2, align 8
  call void @llvm.lifetime.start.p0(i64 8, ptr %3) #3
  %4 = load ptr, ptr %2, align 8
  %5 = getelementptr inbounds nuw %struct.pg_regex_t, ptr %4, i32 0, i32 6
  %6 = load ptr, ptr %5, align 8
  %7 = getelementptr inbounds nuw %struct.guts, ptr %6, i32 0, i32 7
  store ptr %7, ptr %3, align 8
  %8 = load ptr, ptr %3, align 8
  %9 = getelementptr inbounds nuw %struct.colormap, ptr %8, i32 0, i32 3
  %10 = load i64, ptr %9, align 8
  %11 = add i64 %10, 1
  %12 = trunc i64 %11 to i32
  call void @llvm.lifetime.end.p0(i64 8, ptr %3) #3
  ret i32 %12
}